                 U __assert_fail@@GLIBC_2.2.5
0000000000011018 B __bss_start
                 U calloc@@GLIBC_2.2.5
0000000000011018 b completed.8061
                 U __cxa_atexit@@GLIBC_2.2.5
                 U __cxa_begin_catch@@CXXABI_1.3
                 U __cxa_end_catch@@CXXABI_1.3
                 w __cxa_finalize@@GLIBC_2.2.5
                 U __cxa_rethrow@@CXXABI_1.3
                 U __cxa_throw_bad_array_new_length@@CXXABI_1.3.8
0000000000011000 D __data_start
0000000000011000 W data_start
0000000000003b50 t deregister_tm_clones
0000000000003bc0 t __do_global_dtors_aux
0000000000010ae8 d __do_global_dtors_aux_fini_array_entry
0000000000011008 D __dso_handle
0000000000011010 V DW.ref.__gxx_personality_v0
0000000000010af0 d _DYNAMIC
0000000000011018 D _edata
0000000000011030 B _end
                 U exit@@GLIBC_2.2.5
                 U expf@@GLIBC_2.27
000000000000caf8 T _fini
                 U __fprintf_chk@@GLIBC_2.3.4
0000000000003c00 t frame_dummy
0000000000010ad8 d __frame_dummy_init_array_entry
000000000000ed74 r __FRAME_END__
                 U free@@GLIBC_2.2.5
                 U fusedMM_csr
0000000000010d30 d _GLOBAL_OFFSET_TABLE_
0000000000003ae0 t _GLOBAL__sub_I_fusedMMtime.cpp
                 w __gmon_start__
000000000000dd80 r __GNU_EH_FRAME_HDR
                 U GOMP_parallel@@GOMP_4.0
                 U __gxx_personality_v0@@CXXABI_1.3
0000000000003000 t _init
0000000000010ae8 d __init_array_end
0000000000010ad8 d __init_array_start
000000000000d000 R _IO_stdin_used
                 U __isoc99_sscanf@@GLIBC_2.7
                 w _ITM_deregisterTMCloneTable
                 w _ITM_registerTMCloneTable
000000000000caf0 T __libc_csu_fini
000000000000ca80 T __libc_csu_init
                 U __libc_start_main@@GLIBC_2.2.5
0000000000003ac0 T main
                 U malloc@@GLIBC_2.2.5
                 U memcpy@@GLIBC_2.14
                 U memmove@@GLIBC_2.2.5
                 U memset@@GLIBC_2.2.5
000000000000dd80 R __offload_funcs_end
000000000000dd80 R __offload_func_table
000000000000dd80 R __offload_vars_end
000000000000dd80 R __offload_var_table
                 U omp_get_num_threads@@OMP_1.0
                 U omp_get_thread_num@@OMP_1.0
                 U omp_get_wtime@@OMP_2.0
0000000000006940 T performDummySpMM
                 U __printf_chk@@GLIBC_2.3.4
0000000000003b80 t register_tm_clones
0000000000011020 B SM_TABLE
0000000000005c90 T SOP_UDEF_FUNC
00000000000068e0 T SpMM
                 U __stack_chk_fail@@GLIBC_2.4
0000000000003b20 T _start
                 U stderr@@GLIBC_2.2.5
                 U stdout@@GLIBC_2.2.5
                 U strchr@@GLIBC_2.2.5
                 U strcmp@@GLIBC_2.2.5
                 U strlen@@GLIBC_2.2.5
                 U strstr@@GLIBC_2.2.5
                 U strtol@@GLIBC_2.2.5
0000000000011018 D __TMC_END__
                 U _Unwind_Resume@@GCC_3.0
0000000000008970 W _Z10doCheckingIlfEiT_S0_S0_S0_PT0_S2_S0_
0000000000007460 T _Z10GetSpeedupNSt7__cxx1112basic_stringIcSt11char_traitsIcESaIcEEEilliiiiffi
0000000000003930 t _Z10GetSpeedupNSt7__cxx1112basic_stringIcSt11char_traitsIcESaIcEEEilliiiiffi.cold
0000000000005cc0 T _Z10mytest_csrclllflllPKfPKlS2_S2_S0_lS0_lfPfl
0000000000008300 T _Z12performSpMM0v
0000000000003a87 t _Z12performSpMM0v.cold
0000000000005890 T _Z13mytrusted_csrclllflllPKfPKlS2_S2_S0_lS0_lfPfl
0000000000008b80 W _Z14doTesting_AcsrIXadL_Z13mytrusted_csrclllflllPKfPKlS3_S3_S1_lS1_lfPflEEXadL_Z10mytest_csrclllflllS1_S3_S3_S3_S1_lS1_lfS4_lEEEiR3CSRIlfElllffi
0000000000005b40 T _Z14uinit_SM_TABLEv
0000000000009e20 W _Z15doCFTiming_AcsrIlXadL_Z20callCFTimerTest_AcsrlllliilllflllPfPlS1_PKflS3_lfS0_lEEESt6vectorIdSaIdEERK3CSRIlfET_SB_SB_ffiii
0000000000009340 W _Z15doCFTiming_AcsrIlXadL_Z23callCFTimerTrusted_AcsrlllliilllflllPfPlS1_PKflS3_lfS0_lEEESt6vectorIdSaIdEERK3CSRIlfET_SB_SB_ffiii
00000000000057e0 T _Z16truested_gcn_csrclllflllPKfPKlS2_S2_S0_lS0_lfPfl
00000000000040a0 t _Z16truested_gcn_csrclllflllPKfPKlS2_S2_S0_lS0_lfPfl._omp_fn.0
0000000000004480 t _Z17SDDMMSPMMCsrTdistIlfEvPKT_S2_S2_PKT0_S5_PS3_S0_l._omp_fn.0
0000000000005720 T _Z17truested_spmm_csrclllflllPKfPKlS2_S2_S0_lS0_lfPfl
0000000000003c10 t _Z17truested_spmm_csrclllflllPKfPKlS2_S2_S0_lS0_lfPfl._omp_fn.0
0000000000007250 T _Z18callTimerTest_AcsriilllflllPfPlS0_PKflS2_lfS_l
000000000000390c t _Z18callTimerTest_AcsriilllflllPfPlS0_PKflS2_lfS_l.cold
00000000000050a0 t _Z19SDDMMSPMMCsrSigmoidIlfEvPKT_S2_S2_PKT0_S5_PS3_S0_l._omp_fn.0
0000000000007e00 T _Z1aNSt7__cxx1112basic_stringIcSt11char_traitsIcESaIcEEEilliiiiffi
0000000000003a34 t _Z1aNSt7__cxx1112basic_stringIcSt11char_traitsIcESaIcEEEilliiiiffi.cold
0000000000006520 T _Z1bR3CSRIlfElllffi
0000000000007000 T _Z20callCFTimerTest_AcsrlllliilllflllPfPlS0_PKflS2_lfS_l
00000000000038e8 t _Z20callCFTimerTest_AcsrlllliilllflllPfPlS0_PKflS2_lfS_l.cold
0000000000006ba0 T _Z21callTimerTrusted_AcsriilllflllPfPlS0_PKflS2_lfS_l
00000000000038a0 t _Z21callTimerTrusted_AcsriilllflllPfPlS0_PKflS2_lfS_l.cold
000000000000b920 W _Z21SetInputMatricesAsCSCIlfEvR3CSCIT_T0_ENSt7__cxx1112basic_stringIcSt11char_traitsIcESaIcEEE
0000000000006db0 T _Z23callCFTimerTrusted_AcsrlllliilllflllPfPlS0_PKflS2_lfS_l
00000000000038c4 t _Z23callCFTimerTrusted_AcsrlllliilllflllPfPlS0_PKflS2_lfS_l.cold
0000000000005fd0 T _Z5Usagev
0000000000005c60 T _Z6tscalef
0000000000006100 T _Z8GetFlagsiPPcRNSt7__cxx1112basic_stringIcSt11char_traitsIcESaIcEEERiRlS9_S8_S8_S8_S8_RfSA_Rc
0000000000005c00 T _Z8ufast_SMf
0000000000004fa0 t _Z9my_mallocIfEPT_i._omp_fn.0
0000000000005020 t _Z9my_mallocIlEPT_i._omp_fn.0
000000000000af80 W _Z9ReadASCIIIlfEiNSt7__cxx1112basic_stringIcSt11char_traitsIcESaIcEEER3CSCIT_T0_E
0000000000004a70 t _Z9TrustedFRIlfEvPKT_S2_S2_PKT0_S5_PS3_S0_l._omp_fn.0
                 U _ZdaPv@@GLIBCXX_3.4
                 U _ZdlPv@@GLIBCXX_3.4
0000000000008910 W _ZN3CSCIlfE10make_emptyEv
000000000000a900 W _ZN3CSCIlfEC1EP6TripleIlfElll
000000000000a900 W _ZN3CSCIlfEC2EP6TripleIlfElll
000000000000c8a0 t _ZN3CSCIlfEC2EP6TripleIlfElll._omp_fn.0
0000000000008410 W _ZN3CSRIlfE10make_emptyEv
00000000000086f0 W _ZN3CSRIlfEaSERKS0_
0000000000008470 W _ZN3CSRIlfEC1ERK3CSCIlfE
0000000000008470 W _ZN3CSRIlfEC2ERK3CSCIlfE
                 U _Znam@@GLIBCXX_3.4
                 U _ZNKSt12__basic_fileIcE7is_openEv@@GLIBCXX_3.4
                 U _ZNKSt5ctypeIcE13_M_widen_initEv@@GLIBCXX_3.4.11
0000000000008400 W _ZNKSt5ctypeIcE8do_widenEc
                 U _ZNKSt7__cxx1112basic_stringIcSt11char_traitsIcESaIcEE7compareEPKc@@GLIBCXX_3.4.21
                 U _ZNSi3getEv@@GLIBCXX_3.4
                 U _ZNSi5ungetEv@@GLIBCXX_3.4
                 U _ZNSi7getlineEPclc@@GLIBCXX_3.4
                 U _ZNSo3putEc@@GLIBCXX_3.4
                 U _ZNSo5flushEv@@GLIBCXX_3.4
                 U _ZNSo9_M_insertIdEERSoT_@@GLIBCXX_3.4.9
                 U _ZNSo9_M_insertIlEERSoT_@@GLIBCXX_3.4.9
                 U _ZNSt12__basic_fileIcED1Ev@@GLIBCXX_3.4
                 U _ZNSt13basic_filebufIcSt11char_traitsIcEE4openEPKcSt13_Ios_Openmode@@GLIBCXX_3.4
                 U _ZNSt13basic_filebufIcSt11char_traitsIcEE5closeEv@@GLIBCXX_3.4
                 U _ZNSt13basic_filebufIcSt11char_traitsIcEEC1Ev@@GLIBCXX_3.4
                 U _ZNSt13basic_filebufIcSt11char_traitsIcEED1Ev@@GLIBCXX_3.4
                 U _ZNSt14basic_ifstreamIcSt11char_traitsIcEED1Ev@@GLIBCXX_3.4
                 U _ZNSt6localeC1Ev@@GLIBCXX_3.4
                 U _ZNSt6localeD1Ev@@GLIBCXX_3.4
00000000000091e0 W _ZNSt6vectorIdSaIdEE17_M_realloc_insertIJdEEEvN9__gnu_cxx17__normal_iteratorIPdS1_EEDpOT_
000000000000ac60 W _ZNSt6vectorINSt7__cxx1112basic_stringIcSt11char_traitsIcESaIcEEESaIS5_EE17_M_realloc_insertIJRKS5_EEEvN9__gnu_cxx17__normal_iteratorIPS5_S7_EEDpOT_
                 U _ZNSt7__cxx1112basic_stringIcSt11char_traitsIcESaIcEE10_M_replaceEmmPKcm@@GLIBCXX_3.4.21
                 U _ZNSt7__cxx1112basic_stringIcSt11char_traitsIcESaIcEE9_M_assignERKS4_@@GLIBCXX_3.4.21
                 U _ZNSt7__cxx1112basic_stringIcSt11char_traitsIcESaIcEE9_M_createERmm@@GLIBCXX_3.4.21
                 U _ZNSt7__cxx1115basic_stringbufIcSt11char_traitsIcESaIcEE7_M_syncEPcmm@@GLIBCXX_3.4.21
                 U _ZNSt7__cxx1118basic_stringstreamIcSt11char_traitsIcESaIcEED1Ev@@GLIBCXX_3.4.21
                 U _ZNSt8ios_base4InitC1Ev@@GLIBCXX_3.4
                 U _ZNSt8ios_base4InitD1Ev@@GLIBCXX_3.4
                 U _ZNSt8ios_baseC2Ev@@GLIBCXX_3.4
                 U _ZNSt8ios_baseD2Ev@@GLIBCXX_3.4
                 U _ZNSt9basic_iosIcSt11char_traitsIcEE4initEPSt15basic_streambufIcS1_E@@GLIBCXX_3.4
                 U _ZNSt9basic_iosIcSt11char_traitsIcEE5clearESt12_Ios_Iostate@@GLIBCXX_3.4
                 U _Znwm@@GLIBCXX_3.4
000000000000c510 W _ZSt13__adjust_heapIN9__gnu_cxx17__normal_iteratorIPSt4pairIlfESt6vectorIS3_SaIS3_EEEElS3_NS0_5__ops15_Iter_less_iterEEvT_T0_SC_T1_T2_
000000000000c310 W _ZSt16__insertion_sortIN9__gnu_cxx17__normal_iteratorIPSt4pairIlfESt6vectorIS3_SaIS3_EEEENS0_5__ops15_Iter_less_iterEEvT_SB_T0_
000000000000c6e0 t _ZSt16__introsort_loopIN9__gnu_cxx17__normal_iteratorIPSt4pairIlfESt6vectorIS3_SaIS3_EEEElNS0_5__ops15_Iter_less_iterEEvT_SB_T0_T1_.isra.0
                 U _ZSt16__ostream_insertIcSt11char_traitsIcEERSt13basic_ostreamIT_T0_ES6_PKS3_l@@GLIBCXX_3.4.9
                 U _ZSt16__throw_bad_castv@@GLIBCXX_3.4
                 U _ZSt19__throw_logic_errorPKc@@GLIBCXX_3.4
                 U _ZSt20__throw_length_errorPKc@@GLIBCXX_3.4
000000000000c3e0 W _ZSt22__move_median_to_firstIN9__gnu_cxx17__normal_iteratorIPSt4pairIlfESt6vectorIS3_SaIS3_EEEENS0_5__ops15_Iter_less_iterEEvT_SB_SB_SB_T0_
                 U _ZSt4cout@@GLIBCXX_3.4
                 U _ZSt4endlIcSt11char_traitsIcEERSt13basic_ostreamIT_T0_ES6_@@GLIBCXX_3.4
                 U _ZSt7getlineIcSt11char_traitsIcESaIcEERSt13basic_istreamIT_T0_ES7_RNSt7__cxx1112basic_stringIS4_S5_T1_EES4_@@GLIBCXX_3.4.21
0000000000011028 b _ZStL8__ioinit
                 U _ZTIi@@CXXABI_1.3
                 U _ZTIl@@CXXABI_1.3
                 U _ZTTNSt7__cxx1118basic_stringstreamIcSt11char_traitsIcESaIcEEE@@GLIBCXX_3.4.21
                 U _ZTTSt14basic_ifstreamIcSt11char_traitsIcEE@@GLIBCXX_3.4
                 U _ZTVNSt7__cxx1115basic_stringbufIcSt11char_traitsIcESaIcEEE@@GLIBCXX_3.4.21
                 U _ZTVNSt7__cxx1118basic_stringstreamIcSt11char_traitsIcESaIcEEE@@GLIBCXX_3.4.21
                 U _ZTVSt13basic_filebufIcSt11char_traitsIcEE@@GLIBCXX_3.4
                 U _ZTVSt14basic_ifstreamIcSt11char_traitsIcEE@@GLIBCXX_3.4
                 U _ZTVSt15basic_streambufIcSt11char_traitsIcEE@@GLIBCXX_3.4
                 U _ZTVSt9basic_iosIcSt11char_traitsIcEE@@GLIBCXX_3.4
000000000001102c u _ZZ7EpsilonIfET_vE3eps
